target datalayout = "e-m:e-p270:32:32-p271:32:32-p272:64:64-i64:64-i128:128-f80:128-n8:16:32:64-S128"
target triple = "x86_64-unknown-linux-gnu"

%"class.euf::th_internalizer" = type { ptr, %class.ptr_vector.26, %class.svector.28 }
%class.ptr_vector.26 = type { %class.vector.27 }
%class.vector.27 = type { ptr }
%class.svector.28 = type { %class.vector.29 }
%class.vector.29 = type { ptr }
%class.svector.17 = type { %class.vector.18 }
%class.vector.18 = type { ptr }
%class.symbol = type { ptr }
%"class.euf::th_euf_solver" = type <{ %"class.euf::th_solver", ptr, %class.ptr_vector.26, %class.svector.17, i32, [4 x i8] }>
%"class.euf::th_solver" = type { %"class.sat::extension", %"class.euf::th_model_builder", %"class.euf::th_decompile", %"class.euf::th_internalizer", ptr }
%"class.sat::extension" = type { ptr, i8, i32, %class.symbol, ptr }
%"class.euf::th_model_builder" = type { ptr }
%"class.euf::th_decompile" = type { ptr }

; Function Attrs: mustprogress uwtable
define linkonce_odr hidden noundef nonnull align 8 dereferenceable(8) ptr @_ZN6vectorIPN3euf5enodeELb0EjE9push_backERKS2_(ptr noundef nonnull align 8 dereferenceable(8) %this, ptr noundef nonnull align 8 dereferenceable(8) %elem) #5 comdat align 2 {
entry:
  %this.addr = alloca ptr, align 8
  %elem.addr = alloca ptr, align 8
  store ptr %this, ptr %this.addr, align 8
  store ptr %elem, ptr %elem.addr, align 8
  %this1 = load ptr, ptr %this.addr, align 8
  %m_data = getelementptr inbounds %class.vector.27, ptr %this1, i32 0, i32 0
  %0 = load ptr, ptr %m_data, align 8
  %cmp = icmp eq ptr %0, null
  br i1 %cmp, label %if.then, label %lor.lhs.false

lor.lhs.false:                                    ; preds = %entry
  %m_data2 = getelementptr inbounds %class.vector.27, ptr %this1, i32 0, i32 0
  %1 = load ptr, ptr %m_data2, align 8
  %arrayidx = getelementptr inbounds i32, ptr %1, i64 -1
  %2 = load i32, ptr %arrayidx, align 4
  %m_data3 = getelementptr inbounds %class.vector.27, ptr %this1, i32 0, i32 0
  %3 = load ptr, ptr %m_data3, align 8
  %arrayidx4 = getelementptr inbounds i32, ptr %3, i64 -2
  %4 = load i32, ptr %arrayidx4, align 4
  %cmp5 = icmp eq i32 %2, %4
  br i1 %cmp5, label %if.then, label %if.end

if.then:                                          ; preds = %lor.lhs.false, %entry
  call void @_ZN6vectorIPN3euf5enodeELb0EjE13expand_vectorEv(ptr noundef nonnull align 8 dereferenceable(8) %this1)
  br label %if.end

if.end:                                           ; preds = %if.then, %lor.lhs.false
  %m_data6 = getelementptr inbounds %class.vector.27, ptr %this1, i32 0, i32 0
  %5 = load ptr, ptr %m_data6, align 8
  %m_data7 = getelementptr inbounds %class.vector.27, ptr %this1, i32 0, i32 0
  %6 = load ptr, ptr %m_data7, align 8
  %arrayidx8 = getelementptr inbounds i32, ptr %6, i64 -1
  %7 = load i32, ptr %arrayidx8, align 4
  %idx.ext = zext i32 %7 to i64
  %add.ptr = getelementptr inbounds ptr, ptr %5, i64 %idx.ext
  %8 = load ptr, ptr %elem.addr, align 8
  %9 = load ptr, ptr %8, align 8
  store ptr %9, ptr %add.ptr, align 8
  %m_data9 = getelementptr inbounds %class.vector.27, ptr %this1, i32 0, i32 0
  %10 = load ptr, ptr %m_data9, align 8
  %arrayidx10 = getelementptr inbounds i32, ptr %10, i64 -1
  %11 = load i32, ptr %arrayidx10, align 4
  %inc = add i32 %11, 1
  store i32 %inc, ptr %arrayidx10, align 4
  ret ptr %this1
}

; Function Attrs: mustprogress nounwind uwtable
define linkonce_odr hidden noundef i32 @_ZNK6vectorIPN3euf5enodeELb0EjE4sizeEv(ptr noundef nonnull align 8 dereferenceable(8) %this) #4 comdat align 2 {
entry:
  %retval = alloca i32, align 4
  %this.addr = alloca ptr, align 8
  store ptr %this, ptr %this.addr, align 8
  %this1 = load ptr, ptr %this.addr, align 8
  %m_data = getelementptr inbounds %class.vector.27, ptr %this1, i32 0, i32 0
  %0 = load ptr, ptr %m_data, align 8
  %cmp = icmp eq ptr %0, null
  br i1 %cmp, label %if.then, label %if.end

if.then:                                          ; preds = %entry
  store i32 0, ptr %retval, align 4
  br label %return

if.end:                                           ; preds = %entry
  %m_data2 = getelementptr inbounds %class.vector.27, ptr %this1, i32 0, i32 0
  %1 = load ptr, ptr %m_data2, align 8
  %arrayidx = getelementptr inbounds i32, ptr %1, i64 -1
  %2 = load i32, ptr %arrayidx, align 4
  store i32 %2, ptr %retval, align 4
  br label %return

return:                                           ; preds = %if.end, %if.then
  %3 = load i32, ptr %retval, align 4
  ret i32 %3
}

; Function Attrs: mustprogress uwtable
define linkonce_odr hidden void @_ZN3euf13th_euf_solver10force_pushEv(ptr noundef nonnull align 8 dereferenceable(108) %this) #5 comdat align 2 {
entry:
  %this.addr = alloca ptr, align 8
  store ptr %this, ptr %this.addr, align 8
  %this1 = load ptr, ptr %this.addr, align 8
  br label %for.cond

for.cond:                                         ; preds = %for.inc, %entry
  %m_num_scopes = getelementptr inbounds %"class.euf::th_euf_solver", ptr %this1, i32 0, i32 4
  %0 = load i32, ptr %m_num_scopes, align 8
  %cmp = icmp ugt i32 %0, 0
  br i1 %cmp, label %for.body, label %for.end

for.body:                                         ; preds = %for.cond
  %vtable = load ptr, ptr %this1, align 8
  %vfn = getelementptr inbounds ptr, ptr %vtable, i64 62
  %1 = load ptr, ptr %vfn, align 8
  call void %1(ptr noundef nonnull align 8 dereferenceable(108) %this1)
  br label %for.inc

for.inc:                                          ; preds = %for.body
  %m_num_scopes2 = getelementptr inbounds %"class.euf::th_euf_solver", ptr %this1, i32 0, i32 4
  %2 = load i32, ptr %m_num_scopes2, align 8
  %dec = add i32 %2, -1
  store i32 %dec, ptr %m_num_scopes2, align 8
  br label %for.cond, !llvm.loop !7

for.end:                                          ; preds = %for.cond
  ret void
}

; Function Attrs: mustprogress uwtable
define hidden noundef i32 @_ZN3euf13th_euf_solver6mk_varEPNS_5enodeE(ptr noundef nonnull align 8 dereferenceable(108) %this, ptr noundef %n) unnamed_addr #5 align 2 {
entry:
  %this.addr = alloca ptr, align 8
  %n.addr = alloca ptr, align 8
  %v = alloca i32, align 4
  store ptr %this, ptr %this.addr, align 8
  store ptr %n, ptr %n.addr, align 8
  %this1 = load ptr, ptr %this.addr, align 8
  call void @_ZN3euf13th_euf_solver10force_pushEv(ptr noundef nonnull align 8 dereferenceable(108) %this1)
  %m_var2enode = getelementptr inbounds %"class.euf::th_euf_solver", ptr %this1, i32 0, i32 2
  %call = call noundef i32 @_ZNK6vectorIPN3euf5enodeELb0EjE4sizeEv(ptr noundef nonnull align 8 dereferenceable(8) %m_var2enode)
  store i32 %call, ptr %v, align 4
  %m_var2enode2 = getelementptr inbounds %"class.euf::th_euf_solver", ptr %this1, i32 0, i32 2
  %call3 = call noundef nonnull align 8 dereferenceable(8) ptr @_ZN6vectorIPN3euf5enodeELb0EjE9push_backERKS2_(ptr noundef nonnull align 8 dereferenceable(8) %m_var2enode2, ptr noundef nonnull align 8 dereferenceable(8) %n.addr)
  %0 = load i32, ptr %v, align 4
  ret i32 %0
}