; Function Attrs: mustprogress uwtable
define hidden noundef i32 @_ZN3euf13th_euf_solver6mk_varEPNS_5enodeE(ptr noundef nonnull align 8 dereferenceable(108) %this, ptr noundef %n) unnamed_addr #3 align 2 {
entry:
  %m_num_scopes.i = getelementptr inbounds i8, ptr %this, i64 104
  %0 = load i32, ptr %m_num_scopes.i, align 8
  %cmp.not1.i = icmp eq i32 %0, 0
  br i1 %cmp.not1.i, label %_ZN3euf13th_euf_solver10force_pushEv.exit, label %for.body.i

for.body.i:                                       ; preds = %entry, %for.body.i
  %vtable.i = load ptr, ptr %this, align 8
  %vfn.i = getelementptr inbounds i8, ptr %vtable.i, i64 496
  %1 = load ptr, ptr %vfn.i, align 8
  tail call void %1(ptr noundef nonnull align 8 dereferenceable(108) %this)
  %2 = load i32, ptr %m_num_scopes.i, align 8
  %dec.i = add i32 %2, -1
  store i32 %dec.i, ptr %m_num_scopes.i, align 8
  %cmp.not.i = icmp eq i32 %dec.i, 0
  br i1 %cmp.not.i, label %_ZN3euf13th_euf_solver10force_pushEv.exit, label %for.body.i, !llvm.loop !11

_ZN3euf13th_euf_solver10force_pushEv.exit:        ; preds = %for.body.i, %entry
  %m_var2enode = getelementptr inbounds i8, ptr %this, i64 88
  %3 = load ptr, ptr %m_var2enode, align 8
  %cmp.i = icmp eq ptr %3, null
  br i1 %cmp.i, label %if.then.i, label %lor.lhs.false.i

lor.lhs.false.i:                                  ; preds = %_ZN3euf13th_euf_solver10force_pushEv.exit
  %arrayidx.i = getelementptr inbounds i8, ptr %3, i64 -4
  %4 = load i32, ptr %arrayidx.i, align 4
  %arrayidx4.i = getelementptr inbounds i8, ptr %3, i64 -8
  %5 = load i32, ptr %arrayidx4.i, align 4
  %cmp5.i = icmp eq i32 %4, %5
  br i1 %cmp5.i, label %if.then.i, label %_ZN6vectorIPN3euf5enodeELb0EjE9push_backERKS2_.exit

if.then.i:                                        ; preds = %_ZN3euf13th_euf_solver10force_pushEv.exit, %lor.lhs.false.i
  %retval.0.i6 = phi i32 [ %4, %lor.lhs.false.i ], [ 0, %_ZN3euf13th_euf_solver10force_pushEv.exit ]
  tail call void @_ZN6vectorIPN3euf5enodeELb0EjE13expand_vectorEv(ptr noundef nonnull align 8 dereferenceable(8) %m_var2enode)
  %.pre.i = load ptr, ptr %m_var2enode, align 8
  %arrayidx8.phi.trans.insert.i = getelementptr inbounds i8, ptr %.pre.i, i64 -4
  %.pre1.i = load i32, ptr %arrayidx8.phi.trans.insert.i, align 4
  br label %_ZN6vectorIPN3euf5enodeELb0EjE9push_backERKS2_.exit

_ZN6vectorIPN3euf5enodeELb0EjE9push_backERKS2_.exit: ; preds = %lor.lhs.false.i, %if.then.i
  %retval.0.i5 = phi i32 [ %retval.0.i6, %if.then.i ], [ %4, %lor.lhs.false.i ]
  %6 = phi i32 [ %.pre1.i, %if.then.i ], [ %4, %lor.lhs.false.i ]
  %7 = phi ptr [ %.pre.i, %if.then.i ], [ %3, %lor.lhs.false.i ]
  %idx.ext.i = zext i32 %6 to i64
  %add.ptr.i = getelementptr inbounds ptr, ptr %7, i64 %idx.ext.i
  store ptr %n, ptr %add.ptr.i, align 8
  %8 = load ptr, ptr %m_var2enode, align 8
  %arrayidx10.i = getelementptr inbounds i8, ptr %8, i64 -4
  %9 = load i32, ptr %arrayidx10.i, align 4
  %inc.i = add i32 %9, 1
  store i32 %inc.i, ptr %arrayidx10.i, align 4
  ret i32 %retval.0.i5
}